target datalayout = "e-m:e-p270:32:32-p271:32:32-p272:64:64-i64:64-i128:128-f80:128-n8:16:32:64-S128"
target triple = "x86_64-pc-linux-gnu"

%struct.ImVector.25 = type { i32, i32, ptr }

; Function Attrs: inlinehint mustprogress nounwind uwtable
define internal void @_ZN8ImVectorIN12_GLOBAL__N_16MyItemEED2Ev(ptr noundef nonnull align 8 dereferenceable(16) %0) unnamed_addr #7 align 2 personality ptr @__gxx_personality_v0 {
  %2 = alloca ptr, align 8
  store ptr %0, ptr %2, align 8, !tbaa !544
  %3 = load ptr, ptr %2, align 8
  %4 = getelementptr inbounds nuw %struct.ImVector.25, ptr %3, i32 0, i32 2
  %5 = load ptr, ptr %4, align 8, !tbaa !337
  %6 = icmp ne ptr %5, null
  br i1 %6, label %7, label %11

7:                                                ; preds = %1
  %8 = getelementptr inbounds nuw %struct.ImVector.25, ptr %3, i32 0, i32 2
  %9 = load ptr, ptr %8, align 8, !tbaa !337
  invoke void @_ZN5ImGui7MemFreeEPv(ptr noundef %9)
          to label %10 unwind label %12

10:                                               ; preds = %7
  br label %11

11:                                               ; preds = %10, %1
  ret void

12:                                               ; preds = %7
  %13 = landingpad { ptr, i32 }
          catch ptr null
  %14 = extractvalue { ptr, i32 } %13, 0
  call void @__clang_call_terminate(ptr %14) #18
  unreachable
}